; Function Attrs: nounwind uwtable
define hidden void @SDL_ReleaseGPUSampler_REAL(ptr noundef readonly captures(address_is_null) %0, ptr noundef %1) local_unnamed_addr #0 {
  %3 = icmp eq ptr %0, null
  br i1 %3, label %4, label %6

4:                                                ; preds = %2
  %5 = tail call zeroext i1 (ptr, ...) @SDL_SetError_REAL(ptr noundef nonnull @.str.3) #7
  br label %13

6:                                                ; preds = %2
  %7 = icmp eq ptr %1, null
  br i1 %7, label %13, label %8

8:                                                ; preds = %6
  %9 = getelementptr inbounds nuw i8, ptr %0, i64 120
  %10 = load ptr, ptr %9, align 8
  %11 = getelementptr inbounds nuw i8, ptr %0, i64 664
  %12 = load ptr, ptr %11, align 8
  tail call void %10(ptr noundef %12, ptr noundef nonnull %1) #7
  br label %13

13:                                               ; preds = %6, %8, %4
  ret void
}